; Function Attrs: mustprogress uwtable
define dso_local void @_Z31Vmycpu_top___024root___eval_nbaP20Vmycpu_top___024root(ptr noundef %0) local_unnamed_addr #2 {
  %2 = getelementptr inbounds i8, ptr %0, i64 19248
  %3 = load i64, ptr %2, align 8
  %4 = and i64 %3, 2
  %.not = icmp eq i64 %4, 0
  br i1 %.not, label %6, label %5

5:                                                ; preds = %1
  tail call void @_Z42Vmycpu_top___024root___nba_sequent__TOP__0P20Vmycpu_top___024root(ptr noundef nonnull %0)
  tail call void @_Z42Vmycpu_top___024root___nba_sequent__TOP__1P20Vmycpu_top___024root(ptr noundef nonnull %0)
  %.pre = load i64, ptr %2, align 8
  br label %6

6:                                                ; preds = %5, %1
  %7 = phi i64 [ %.pre, %5 ], [ %3, %1 ]
  %8 = and i64 %7, 3
  %.not6 = icmp eq i64 %8, 0
  br i1 %.not6, label %10, label %9

9:                                                ; preds = %6
  tail call void @_Z39Vmycpu_top___024root___nba_comb__TOP__0P20Vmycpu_top___024root(ptr noundef nonnull %0)
  br label %10

10:                                               ; preds = %9, %6
  ret void
}